target datalayout = "e-m:e-p270:32:32-p271:32:32-p272:64:64-i64:64-i128:128-f80:128-n8:16:32:64-S128"
target triple = "x86_64-pc-linux-gnu"

%struct.Vec_Int_t_ = type { i32, i32, ptr }
%struct.Vec_Wrd_t_ = type { i32, i32, ptr }

; Function Attrs: inlinehint nounwind uwtable
define internal ptr @Vec_WrdAlloc(i32 noundef %0) #2 {
  %2 = alloca i32, align 4
  %3 = alloca ptr, align 8
  store i32 %0, ptr %2, align 4, !tbaa !10
  call void @llvm.lifetime.start.p0(i64 8, ptr %3) #13
  %4 = call noalias ptr @malloc(i64 noundef 16) #15
  store ptr %4, ptr %3, align 8, !tbaa !133
  %5 = load i32, ptr %2, align 4, !tbaa !10
  %6 = icmp sgt i32 %5, 0
  br i1 %6, label %7, label %11

7:                                                ; preds = %1
  %8 = load i32, ptr %2, align 4, !tbaa !10
  %9 = icmp slt i32 %8, 16
  br i1 %9, label %10, label %11

10:                                               ; preds = %7
  store i32 16, ptr %2, align 4, !tbaa !10
  br label %11

11:                                               ; preds = %10, %7, %1
  %12 = load ptr, ptr %3, align 8, !tbaa !133
  %13 = getelementptr inbounds nuw %struct.Vec_Wrd_t_, ptr %12, i32 0, i32 1
  store i32 0, ptr %13, align 4, !tbaa !139
  %14 = load i32, ptr %2, align 4, !tbaa !10
  %15 = load ptr, ptr %3, align 8, !tbaa !133
  %16 = getelementptr inbounds nuw %struct.Vec_Wrd_t_, ptr %15, i32 0, i32 0
  store i32 %14, ptr %16, align 8, !tbaa !213
  %17 = load ptr, ptr %3, align 8, !tbaa !133
  %18 = getelementptr inbounds nuw %struct.Vec_Wrd_t_, ptr %17, i32 0, i32 0
  %19 = load i32, ptr %18, align 8, !tbaa !213
  %20 = icmp ne i32 %19, 0
  br i1 %20, label %21, label %28

21:                                               ; preds = %11
  %22 = load ptr, ptr %3, align 8, !tbaa !133
  %23 = getelementptr inbounds nuw %struct.Vec_Wrd_t_, ptr %22, i32 0, i32 0
  %24 = load i32, ptr %23, align 8, !tbaa !213
  %25 = sext i32 %24 to i64
  %26 = mul i64 8, %25
  %27 = call noalias ptr @malloc(i64 noundef %26) #15
  br label %29

28:                                               ; preds = %11
  br label %29

29:                                               ; preds = %28, %21
  %30 = phi ptr [ %27, %21 ], [ null, %28 ]
  %31 = load ptr, ptr %3, align 8, !tbaa !133
  %32 = getelementptr inbounds nuw %struct.Vec_Wrd_t_, ptr %31, i32 0, i32 2
  store ptr %30, ptr %32, align 8, !tbaa !137
  %33 = load ptr, ptr %3, align 8, !tbaa !133
  call void @llvm.lifetime.end.p0(i64 8, ptr %3) #13
  ret ptr %33
}

; Function Attrs: inlinehint nounwind uwtable
define internal ptr @Vec_WrdLimit(ptr noundef %0) #2 {
  %2 = alloca ptr, align 8
  store ptr %0, ptr %2, align 8, !tbaa !133
  %3 = load ptr, ptr %2, align 8, !tbaa !133
  %4 = getelementptr inbounds nuw %struct.Vec_Wrd_t_, ptr %3, i32 0, i32 2
  %5 = load ptr, ptr %4, align 8, !tbaa !137
  %6 = load ptr, ptr %2, align 8, !tbaa !133
  %7 = getelementptr inbounds nuw %struct.Vec_Wrd_t_, ptr %6, i32 0, i32 1
  %8 = load i32, ptr %7, align 4, !tbaa !139
  %9 = sext i32 %8 to i64
  %10 = getelementptr inbounds i64, ptr %5, i64 %9
  ret ptr %10
}

; Function Attrs: inlinehint nounwind uwtable
define internal void @Abc_TtCopy(ptr noundef %0, ptr noundef %1, i32 noundef %2, i32 noundef %3) #2 {
  %5 = alloca ptr, align 8
  %6 = alloca ptr, align 8
  %7 = alloca i32, align 4
  %8 = alloca i32, align 4
  %9 = alloca i32, align 4
  store ptr %0, ptr %5, align 8, !tbaa !134
  store ptr %1, ptr %6, align 8, !tbaa !134
  store i32 %2, ptr %7, align 4, !tbaa !10
  store i32 %3, ptr %8, align 4, !tbaa !10
  call void @llvm.lifetime.start.p0(i64 4, ptr %9) #13
  %10 = load i32, ptr %8, align 4, !tbaa !10
  %11 = icmp ne i32 %10, 0
  br i1 %11, label %12, label %32

12:                                               ; preds = %4
  store i32 0, ptr %9, align 4, !tbaa !10
  br label %13

13:                                               ; preds = %28, %12
  %14 = load i32, ptr %9, align 4, !tbaa !10
  %15 = load i32, ptr %7, align 4, !tbaa !10
  %16 = icmp slt i32 %14, %15
  br i1 %16, label %17, label %31

17:                                               ; preds = %13
  %18 = load ptr, ptr %6, align 8, !tbaa !134
  %19 = load i32, ptr %9, align 4, !tbaa !10
  %20 = sext i32 %19 to i64
  %21 = getelementptr inbounds i64, ptr %18, i64 %20
  %22 = load i64, ptr %21, align 8, !tbaa !62
  %23 = xor i64 %22, -1
  %24 = load ptr, ptr %5, align 8, !tbaa !134
  %25 = load i32, ptr %9, align 4, !tbaa !10
  %26 = sext i32 %25 to i64
  %27 = getelementptr inbounds i64, ptr %24, i64 %26
  store i64 %23, ptr %27, align 8, !tbaa !62
  br label %28

28:                                               ; preds = %17
  %29 = load i32, ptr %9, align 4, !tbaa !10
  %30 = add nsw i32 %29, 1
  store i32 %30, ptr %9, align 4, !tbaa !10
  br label %13, !llvm.loop !159

31:                                               ; preds = %13
  br label %51

32:                                               ; preds = %4
  store i32 0, ptr %9, align 4, !tbaa !10
  br label %33

33:                                               ; preds = %47, %32
  %34 = load i32, ptr %9, align 4, !tbaa !10
  %35 = load i32, ptr %7, align 4, !tbaa !10
  %36 = icmp slt i32 %34, %35
  br i1 %36, label %37, label %50

37:                                               ; preds = %33
  %38 = load ptr, ptr %6, align 8, !tbaa !134
  %39 = load i32, ptr %9, align 4, !tbaa !10
  %40 = sext i32 %39 to i64
  %41 = getelementptr inbounds i64, ptr %38, i64 %40
  %42 = load i64, ptr %41, align 8, !tbaa !62
  %43 = load ptr, ptr %5, align 8, !tbaa !134
  %44 = load i32, ptr %9, align 4, !tbaa !10
  %45 = sext i32 %44 to i64
  %46 = getelementptr inbounds i64, ptr %43, i64 %45
  store i64 %42, ptr %46, align 8, !tbaa !62
  br label %47

47:                                               ; preds = %37
  %48 = load i32, ptr %9, align 4, !tbaa !10
  %49 = add nsw i32 %48, 1
  store i32 %49, ptr %9, align 4, !tbaa !10
  br label %33, !llvm.loop !160

50:                                               ; preds = %33
  br label %51

51:                                               ; preds = %50, %31
  call void @llvm.lifetime.end.p0(i64 4, ptr %9) #13
  ret void
}

; Function Attrs: inlinehint nounwind uwtable
define internal ptr @Vec_WrdArray(ptr noundef %0) #2 {
  %2 = alloca ptr, align 8
  store ptr %0, ptr %2, align 8, !tbaa !133
  %3 = load ptr, ptr %2, align 8, !tbaa !133
  %4 = getelementptr inbounds nuw %struct.Vec_Wrd_t_, ptr %3, i32 0, i32 2
  %5 = load ptr, ptr %4, align 8, !tbaa !137
  ret ptr %5
}

; Function Attrs: inlinehint nounwind uwtable
define internal i32 @Vec_IntEntry(ptr noundef %0, i32 noundef %1) #2 {
  %3 = alloca ptr, align 8
  %4 = alloca i32, align 4
  store ptr %0, ptr %3, align 8, !tbaa !35
  store i32 %1, ptr %4, align 4, !tbaa !10
  %5 = load ptr, ptr %3, align 8, !tbaa !35
  %6 = getelementptr inbounds nuw %struct.Vec_Int_t_, ptr %5, i32 0, i32 2
  %7 = load ptr, ptr %6, align 8, !tbaa !52
  %8 = load i32, ptr %4, align 4, !tbaa !10
  %9 = sext i32 %8 to i64
  %10 = getelementptr inbounds i32, ptr %7, i64 %9
  %11 = load i32, ptr %10, align 4, !tbaa !10
  ret i32 %11
}

; Function Attrs: inlinehint nounwind uwtable
define internal void @Vec_WrdShrink(ptr noundef %0, i32 noundef %1) #2 {
  %3 = alloca ptr, align 8
  %4 = alloca i32, align 4
  store ptr %0, ptr %3, align 8, !tbaa !133
  store i32 %1, ptr %4, align 4, !tbaa !10
  %5 = load i32, ptr %4, align 4, !tbaa !10
  %6 = load ptr, ptr %3, align 8, !tbaa !133
  %7 = getelementptr inbounds nuw %struct.Vec_Wrd_t_, ptr %6, i32 0, i32 1
  store i32 %5, ptr %7, align 4, !tbaa !139
  ret void
}

; Function Attrs: inlinehint nounwind uwtable
define internal ptr @Vec_WrdStart(i32 noundef %0) #2 {
  %2 = alloca i32, align 4
  %3 = alloca ptr, align 8
  store i32 %0, ptr %2, align 4, !tbaa !10
  call void @llvm.lifetime.start.p0(i64 8, ptr %3) #13
  %4 = load i32, ptr %2, align 4, !tbaa !10
  %5 = call ptr @Vec_WrdAlloc(i32 noundef %4)
  store ptr %5, ptr %3, align 8, !tbaa !133
  %6 = load i32, ptr %2, align 4, !tbaa !10
  %7 = load ptr, ptr %3, align 8, !tbaa !133
  %8 = getelementptr inbounds nuw %struct.Vec_Wrd_t_, ptr %7, i32 0, i32 1
  store i32 %6, ptr %8, align 4, !tbaa !139
  %9 = load ptr, ptr %3, align 8, !tbaa !133
  %10 = getelementptr inbounds nuw %struct.Vec_Wrd_t_, ptr %9, i32 0, i32 2
  %11 = load ptr, ptr %10, align 8, !tbaa !137
  %12 = load i32, ptr %2, align 4, !tbaa !10
  %13 = sext i32 %12 to i64
  %14 = mul i64 8, %13
  call void @llvm.memset.p0.i64(ptr align 8 %11, i8 0, i64 %14, i1 false)
  %15 = load ptr, ptr %3, align 8, !tbaa !133
  call void @llvm.lifetime.end.p0(i64 8, ptr %3) #13
  ret ptr %15
}

; Function Attrs: inlinehint nounwind uwtable
define internal i32 @Vec_IntSize(ptr noundef %0) #2 {
  %2 = alloca ptr, align 8
  store ptr %0, ptr %2, align 8, !tbaa !35
  %3 = load ptr, ptr %2, align 8, !tbaa !35
  %4 = getelementptr inbounds nuw %struct.Vec_Int_t_, ptr %3, i32 0, i32 1
  %5 = load i32, ptr %4, align 4, !tbaa !45
  ret i32 %5
}

; Function Attrs: inlinehint nounwind uwtable
define internal i32 @Vec_WrdSize(ptr noundef %0) #2 {
  %2 = alloca ptr, align 8
  store ptr %0, ptr %2, align 8, !tbaa !133
  %3 = load ptr, ptr %2, align 8, !tbaa !133
  %4 = getelementptr inbounds nuw %struct.Vec_Wrd_t_, ptr %3, i32 0, i32 1
  %5 = load i32, ptr %4, align 4, !tbaa !139
  ret i32 %5
}

; Function Attrs: nounwind uwtable
define ptr @Min_ManRemapSims(i32 noundef %0, ptr noundef %1, ptr noundef %2) #0 {
  %4 = alloca i32, align 4
  %5 = alloca ptr, align 8
  %6 = alloca ptr, align 8
  %7 = alloca i32, align 4
  %8 = alloca i32, align 4
  %9 = alloca i32, align 4
  %10 = alloca ptr, align 8
  store i32 %0, ptr %4, align 4, !tbaa !10
  store ptr %1, ptr %5, align 8, !tbaa !35
  store ptr %2, ptr %6, align 8, !tbaa !133
  call void @llvm.lifetime.start.p0(i64 4, ptr %7) #13
  call void @llvm.lifetime.start.p0(i64 4, ptr %8) #13
  call void @llvm.lifetime.start.p0(i64 4, ptr %9) #13
  %11 = load ptr, ptr %6, align 8, !tbaa !133
  %12 = call i32 @Vec_WrdSize(ptr noundef %11)
  %13 = load ptr, ptr %5, align 8, !tbaa !35
  %14 = call i32 @Vec_IntSize(ptr noundef %13)
  %15 = sdiv i32 %12, %14
  store i32 %15, ptr %9, align 4, !tbaa !10
  call void @llvm.lifetime.start.p0(i64 8, ptr %10) #13
  %16 = load i32, ptr %4, align 4, !tbaa !10
  %17 = mul nsw i32 2, %16
  %18 = load i32, ptr %9, align 4, !tbaa !10
  %19 = mul nsw i32 %17, %18
  %20 = call ptr @Vec_WrdStart(i32 noundef %19)
  store ptr %20, ptr %10, align 8, !tbaa !133
  %21 = load ptr, ptr %10, align 8, !tbaa !133
  %22 = load ptr, ptr %10, align 8, !tbaa !133
  %23 = call i32 @Vec_WrdSize(ptr noundef %22)
  %24 = sdiv i32 %23, 2
  call void @Vec_WrdShrink(ptr noundef %21, i32 noundef %24)
  store i32 0, ptr %7, align 4, !tbaa !10
  br label %25

25:                                               ; preds = %69, %3
  %26 = load i32, ptr %7, align 4, !tbaa !10
  %27 = load ptr, ptr %5, align 8, !tbaa !35
  %28 = call i32 @Vec_IntSize(ptr noundef %27)
  %29 = icmp slt i32 %26, %28
  br i1 %29, label %30, label %34

30:                                               ; preds = %25
  %31 = load ptr, ptr %5, align 8, !tbaa !35
  %32 = load i32, ptr %7, align 4, !tbaa !10
  %33 = call i32 @Vec_IntEntry(ptr noundef %31, i32 noundef %32)
  store i32 %33, ptr %8, align 4, !tbaa !10
  br label %34

34:                                               ; preds = %30, %25
  %35 = phi i1 [ false, %25 ], [ true, %30 ]
  br i1 %35, label %36, label %72

36:                                               ; preds = %34
  %37 = load ptr, ptr %10, align 8, !tbaa !133
  %38 = call ptr @Vec_WrdArray(ptr noundef %37)
  %39 = load i32, ptr %8, align 4, !tbaa !10
  %40 = sub nsw i32 %39, 1
  %41 = load i32, ptr %9, align 4, !tbaa !10
  %42 = mul nsw i32 %40, %41
  %43 = sext i32 %42 to i64
  %44 = getelementptr inbounds i64, ptr %38, i64 %43
  %45 = load ptr, ptr %6, align 8, !tbaa !133
  %46 = call ptr @Vec_WrdArray(ptr noundef %45)
  %47 = load i32, ptr %7, align 4, !tbaa !10
  %48 = load i32, ptr %9, align 4, !tbaa !10
  %49 = mul nsw i32 %47, %48
  %50 = sext i32 %49 to i64
  %51 = getelementptr inbounds i64, ptr %46, i64 %50
  %52 = load i32, ptr %9, align 4, !tbaa !10
  call void @Abc_TtCopy(ptr noundef %44, ptr noundef %51, i32 noundef %52, i32 noundef 0)
  %53 = load ptr, ptr %10, align 8, !tbaa !133
  %54 = call ptr @Vec_WrdLimit(ptr noundef %53)
  %55 = load i32, ptr %8, align 4, !tbaa !10
  %56 = sub nsw i32 %55, 1
  %57 = load i32, ptr %9, align 4, !tbaa !10
  %58 = mul nsw i32 %56, %57
  %59 = sext i32 %58 to i64
  %60 = getelementptr inbounds i64, ptr %54, i64 %59
  %61 = load ptr, ptr %6, align 8, !tbaa !133
  %62 = call ptr @Vec_WrdLimit(ptr noundef %61)
  %63 = load i32, ptr %7, align 4, !tbaa !10
  %64 = load i32, ptr %9, align 4, !tbaa !10
  %65 = mul nsw i32 %63, %64
  %66 = sext i32 %65 to i64
  %67 = getelementptr inbounds i64, ptr %62, i64 %66
  %68 = load i32, ptr %9, align 4, !tbaa !10
  call void @Abc_TtCopy(ptr noundef %60, ptr noundef %67, i32 noundef %68, i32 noundef 0)
  br label %69

69:                                               ; preds = %36
  %70 = load i32, ptr %7, align 4, !tbaa !10
  %71 = add nsw i32 %70, 1
  store i32 %71, ptr %7, align 4, !tbaa !10
  br label %25, !llvm.loop !166

72:                                               ; preds = %34
  %73 = load ptr, ptr %10, align 8, !tbaa !133
  call void @llvm.lifetime.end.p0(i64 8, ptr %10) #13
  call void @llvm.lifetime.end.p0(i64 4, ptr %9) #13
  call void @llvm.lifetime.end.p0(i64 4, ptr %8) #13
  call void @llvm.lifetime.end.p0(i64 4, ptr %7) #13
  ret ptr %73
}