; Function Attrs: nofree nounwind uwtable
define noalias noundef ptr @Min_ManRemapSims(i32 noundef %0, ptr noundef readonly captures(none) %1, ptr noundef readonly captures(none) %2) local_unnamed_addr #9 {
  %4 = getelementptr i8, ptr %2, i64 4
  %.val28 = load i32, ptr %4, align 4, !tbaa !138
  %5 = getelementptr i8, ptr %1, i64 4
  %.val25 = load i32, ptr %5, align 4, !tbaa !30
  %6 = sdiv i32 %.val28, %.val25
  %7 = shl nsw i32 %0, 1
  %8 = mul nsw i32 %6, %7
  %9 = tail call noalias dereferenceable_or_null(16) ptr @malloc(i64 noundef 16) #26
  %10 = add i32 %8, -1
  %or.cond.i.i = icmp ult i32 %10, 15
  %spec.store.select.i.i = select i1 %or.cond.i.i, i32 16, i32 %8
  store i32 %spec.store.select.i.i, ptr %9, align 8, !tbaa !149
  %.not.i.i = icmp eq i32 %spec.store.select.i.i, 0
  br i1 %.not.i.i, label %Vec_WrdStart.exit, label %11

11:                                               ; preds = %3
  %12 = sext i32 %spec.store.select.i.i to i64
  %13 = shl nsw i64 %12, 3
  %14 = tail call noalias ptr @malloc(i64 noundef %13) #26
  br label %Vec_WrdStart.exit

Vec_WrdStart.exit:                                ; preds = %3, %11
  %15 = phi ptr [ %14, %11 ], [ null, %3 ]
  %16 = getelementptr inbounds nuw i8, ptr %9, i64 4
  %17 = getelementptr inbounds nuw i8, ptr %9, i64 8
  store ptr %15, ptr %17, align 8, !tbaa !136
  %18 = sext i32 %8 to i64
  %19 = shl nsw i64 %18, 3
  tail call void @llvm.memset.p0.i64(ptr align 8 %15, i8 0, i64 %19, i1 false)
  %20 = ashr exact i32 %8, 1
  store i32 %20, ptr %16, align 4, !tbaa !138
  %21 = icmp sgt i32 %.val25, 0
  br i1 %21, label %.lr.ph, label %.critedge

.lr.ph:                                           ; preds = %Vec_WrdStart.exit
  %22 = getelementptr i8, ptr %1, i64 8
  %.val26 = load ptr, ptr %22, align 8, !tbaa !32
  %23 = getelementptr i8, ptr %2, i64 8
  %.val33 = load ptr, ptr %23, align 8, !tbaa !136
  %24 = icmp sgt i32 %6, 0
  %wide.trip.count.i = zext i32 %6 to i64
  %25 = sext i32 %20 to i64
  %26 = getelementptr inbounds i64, ptr %15, i64 %25
  %27 = sext i32 %.val28 to i64
  %28 = getelementptr inbounds i64, ptr %.val33, i64 %27
  br i1 %24, label %.lr.ph.preheader.i.us.preheader, label %.critedge

.lr.ph.preheader.i.us.preheader:                  ; preds = %.lr.ph
  %wide.trip.count = zext nneg i32 %.val25 to i64
  br label %.lr.ph.preheader.i.us

.lr.ph.preheader.i.us:                            ; preds = %.lr.ph.preheader.i.us.preheader, %Abc_TtCopy.exit41.loopexit.us
  %indvars.iv = phi i64 [ 0, %.lr.ph.preheader.i.us.preheader ], [ %indvars.iv.next, %Abc_TtCopy.exit41.loopexit.us ]
  %29 = getelementptr inbounds nuw i32, ptr %.val26, i64 %indvars.iv
  %30 = load i32, ptr %29, align 4, !tbaa !35
  %31 = add nsw i32 %30, -1
  %32 = mul nsw i32 %31, %6
  %33 = sext i32 %32 to i64
  %34 = getelementptr inbounds i64, ptr %15, i64 %33
  %35 = mul nuw nsw i64 %indvars.iv, %wide.trip.count.i
  %36 = getelementptr inbounds nuw i64, ptr %.val33, i64 %35
  br label %.lr.ph.i.us

.lr.ph.i.us:                                      ; preds = %.lr.ph.i.us, %.lr.ph.preheader.i.us
  %indvars.iv.i.us = phi i64 [ 0, %.lr.ph.preheader.i.us ], [ %indvars.iv.next.i.us, %.lr.ph.i.us ]
  %37 = getelementptr inbounds nuw i64, ptr %36, i64 %indvars.iv.i.us
  %38 = load i64, ptr %37, align 8, !tbaa !150
  %39 = getelementptr inbounds nuw i64, ptr %34, i64 %indvars.iv.i.us
  store i64 %38, ptr %39, align 8, !tbaa !150
  %indvars.iv.next.i.us = add nuw nsw i64 %indvars.iv.i.us, 1
  %exitcond.not.i.us = icmp eq i64 %indvars.iv.next.i.us, %wide.trip.count.i
  br i1 %exitcond.not.i.us, label %Abc_TtCopy.exit.us, label %.lr.ph.i.us, !llvm.loop !156

Abc_TtCopy.exit.us:                               ; preds = %.lr.ph.i.us
  %40 = getelementptr inbounds i64, ptr %26, i64 %33
  %41 = getelementptr inbounds nuw i64, ptr %28, i64 %35
  br label %.lr.ph.i37.us

.lr.ph.i37.us:                                    ; preds = %.lr.ph.i37.us, %Abc_TtCopy.exit.us
  %indvars.iv.i38.us = phi i64 [ 0, %Abc_TtCopy.exit.us ], [ %indvars.iv.next.i39.us, %.lr.ph.i37.us ]
  %42 = getelementptr inbounds nuw i64, ptr %41, i64 %indvars.iv.i38.us
  %43 = load i64, ptr %42, align 8, !tbaa !150
  %44 = getelementptr inbounds nuw i64, ptr %40, i64 %indvars.iv.i38.us
  store i64 %43, ptr %44, align 8, !tbaa !150
  %indvars.iv.next.i39.us = add nuw nsw i64 %indvars.iv.i38.us, 1
  %exitcond.not.i40.us = icmp eq i64 %indvars.iv.next.i39.us, %wide.trip.count.i
  br i1 %exitcond.not.i40.us, label %Abc_TtCopy.exit41.loopexit.us, label %.lr.ph.i37.us, !llvm.loop !156

Abc_TtCopy.exit41.loopexit.us:                    ; preds = %.lr.ph.i37.us
  %indvars.iv.next = add nuw nsw i64 %indvars.iv, 1
  %exitcond.not = icmp eq i64 %indvars.iv.next, %wide.trip.count
  br i1 %exitcond.not, label %.critedge, label %.lr.ph.preheader.i.us, !llvm.loop !162

.critedge:                                        ; preds = %Abc_TtCopy.exit41.loopexit.us, %.lr.ph, %Vec_WrdStart.exit
  ret ptr %9
}